Certificate:
    Data:
        Version: 3 (0x2)
        Serial Number:
            de:8f:89:1e:5a:c1:32:aa
        Signature Algorithm: sha1WithRSAEncryption
        Issuer: CN=QUIC Server Root CA
        Validity
            Not Before: Feb 14 09:50:32 2017 GMT
            Not After : Feb 17 09:50:32 2017 GMT
        Subject: CN=QUIC Server Root CA
        Subject Public Key Info:
            Public Key Algorithm: rsaEncryption
            RSA Public Key: (2048 bit)
                Modulus (2048 bit):
                    00:cc:9c:94:1a:64:b2:b3:5b:71:38:78:17:ba:ae:
                    d1:82:0c:0d:f7:8c:f8:e9:4e:e4:e0:e3:07:99:eb:
                    e7:70:70:25:26:4c:c2:39:96:ea:38:e2:4f:0c:48:
                    68:d7:72:06:81:b3:87:04:74:75:2c:c1:82:4d:19:
                    dc:6a:32:33:17:5a:e6:1c:fb:03:36:f8:20:e9:ec:
                    06:48:95:c3:ad:00:cc:4f:ba:c3:c5:78:df:b4:8c:
                    19:d1:00:69:40:2c:4f:45:91:e1:92:23:49:3f:07:
                    a8:1c:20:c8:66:88:f2:ac:69:46:e4:4a:22:e9:90:
                    38:1a:8b:28:f2:1f:37:0b:d3:ab:39:98:49:7c:18:
                    16:17:ae:39:83:4a:2b:0c:33:73:bd:f7:c5:fd:16:
                    bc:dc:05:1a:11:70:99:88:d0:5c:aa:64:4b:52:22:
                    18:d2:52:e6:8f:51:ae:f5:37:d7:c2:97:06:44:b9:
                    48:ad:25:66:3b:9a:40:48:56:69:af:49:f4:56:93:
                    bd:4e:44:b9:3f:35:55:45:66:90:b4:b1:93:73:49:
                    65:6a:cd:07:e3:f0:f5:96:3f:5c:26:24:93:bc:dd:
                    08:39:c3:03:68:d9:f7:fb:7b:5e:49:6f:f6:13:91:
                    7a:94:a5:5b:56:08:8d:66:b3:58:14:b6:e2:d1:84:
                    36:e3
                Exponent: 65537 (0x10001)
        X509v3 extensions:
            X509v3 Basic Constraints: critical
                CA:TRUE
            X509v3 Subject Key Identifier: 
                FF:4E:6F:0A:E6:DA:91:BA:EB:D3:C2:EE:1C:09:DD:C0:D8:ED:50:78
            X509v3 Key Usage: critical
                Certificate Sign, CRL Sign
    Signature Algorithm: sha1WithRSAEncryption
        a7:05:71:67:47:ea:09:57:c7:43:48:a5:a5:8c:e9:d2:8c:84:
        f1:01:8d:61:e4:d2:c4:25:97:23:b9:92:cb:42:00:e0:e9:80:
        4e:41:2b:89:2f:69:f4:b7:74:cb:d3:b6:4b:b0:e8:a1:60:f8:
        7f:f4:b1:13:92:50:e7:2f:5b:28:23:74:4f:4d:82:5b:85:81:
        b6:49:f8:53:4f:af:92:1e:fc:24:b9:2b:91:6d:b7:bc:dd:87:
        2d:19:d7:e4:01:a0:27:80:b0:cb:fe:1b:2f:55:c7:d5:4b:5f:
        05:21:cb:e7:e9:1e:fb:ba:9e:0f:93:79:8e:cd:01:58:b5:74:
        93:2f:c5:ee:0a:3e:06:a5:32:1d:df:c3:0a:10:66:cf:cf:34:
        9d:09:5d:06:13:ca:09:24:24:d1:f9:75:cb:09:a6:a3:53:c8:
        28:63:a1:ac:a3:c8:b8:42:b0:15:fa:b5:33:9e:6c:28:b7:36:
        93:67:de:12:f3:60:6e:8e:aa:6f:3c:24:d6:b7:b7:eb:03:61:
        db:24:09:c5:bb:ee:bd:e5:f4:44:53:1c:5a:57:2f:52:0c:45:
        6e:82:d2:8d:32:cd:b7:78:88:20:3b:ef:bd:02:a8:f5:8c:50:
        da:2e:6d:94:df:d9:61:67:9f:4b:91:3e:bb:42:53:46:5e:62:
        e2:be:e6:39
-----BEGIN CERTIFICATE-----
MIIDATCCAemgAwIBAgIJAN6PiR5awTKqMA0GCSqGSIb3DQEBBQUAMB4xHDAaBgNV
BAMME1FVSUMgU2VydmVyIFJvb3QgQ0EwHhcNMTcwMjE0MDk1MDMyWhcNMTcwMjE3
MDk1MDMyWjAeMRwwGgYDVQQDDBNRVUlDIFNlcnZlciBSb290IENBMIIBIjANBgkq
hkiG9w0BAQEFAAOCAQ8AMIIBCgKCAQEAzJyUGmSys1txOHgXuq7RggwN94z46U7k
4OMHmevncHAlJkzCOZbqOOJPDEho13IGgbOHBHR1LMGCTRncajIzF1rmHPsDNvgg
6ewGSJXDrQDMT7rDxXjftIwZ0QBpQCxPRZHhkiNJPweoHCDIZojyrGlG5Eoi6ZA4
Goso8h83C9OrOZhJfBgWF645g0orDDNzvffF/Ra83AUaEXCZiNBcqmRLUiIY0lLm
j1Gu9TfXwpcGRLlIrSVmO5pASFZpr0n0VpO9TkS5PzVVRWaQtLGTc0llas0H4/D1
lj9cJiSTvN0IOcMDaNn3+3teSW/2E5F6lKVbVgiNZrNYFLbi0YQ24wIDAQABo0Iw
QDAPBgNVHRMBAf8EBTADAQH/MB0GA1UdDgQWBBT/Tm8K5tqRuuvTwu4cCd3A2O1Q
eDAOBgNVHQ8BAf8EBAMCAQYwDQYJKoZIhvcNAQEFBQADggEBAKcFcWdH6glXx0NI
paWM6dKMhPEBjWHk0sQllyO5kstCAODpgE5BK4kvafS3dMvTtkuw6KFg+H/0sROS
UOcvWygjdE9NgluFgbZJ+FNPr5Ie/CS5K5Ftt7zdhy0Z1+QBoCeAsMv+Gy9Vx9VL
XwUhy+fpHvu6ng+TeY7NAVi1dJMvxe4KPgalMh3fwwoQZs/PNJ0JXQYTygkkJNH5
dcsJpqNTyChjoayjyLhCsBX6tTOebCi3NpNn3hLzYG6Oqm88JNa3t+sDYdskCcW7
7r3l9ERTHFpXL1IMRW6C0o0yzbd4iCA7770CqPWMUNoubZTf2WFnn0uRPrtCU0Ze
YuK+5jk=
-----END CERTIFICATE-----
