Certificate:
    Data:
        Version: 3 (0x2)
        Serial Number: 1 (0x1)
        Signature Algorithm: sha256WithRSAEncryption
        Issuer: CN=QUIC Server Root CA
        Validity
            Not Before: Feb 14 09:50:32 2017 GMT
            Not After : Feb 17 09:50:32 2017 GMT
        Subject: C=US, ST=California, L=Mountain View, O=QUIC Server, CN=127.0.0.1
        Subject Public Key Info:
            Public Key Algorithm: rsaEncryption
            RSA Public Key: (2048 bit)
                Modulus (2048 bit):
                    00:cc:30:3b:af:96:3f:78:c8:61:e7:68:d1:a1:31:
                    f7:e5:5d:50:7b:0b:a0:8c:14:73:64:b0:f8:a2:c6:
                    15:fd:3d:cc:b8:bd:3b:20:2f:cd:fe:db:22:ff:f7:
                    6c:35:d1:e1:bd:86:af:d0:73:96:82:1e:80:5a:62:
                    7c:54:6c:e1:10:6e:fa:67:3b:99:80:74:95:ef:f1:
                    b5:a8:71:97:f5:3c:4c:95:b6:a3:90:5c:26:42:99:
                    18:71:81:57:5c:86:ac:4d:97:27:17:70:b3:ae:00:
                    10:51:7d:8c:95:0f:bb:17:60:e8:59:f1:ba:28:d1:
                    4f:58:fd:44:a6:4a:d3:6f:f3:b5:f4:7d:f1:14:0e:
                    d9:93:99:42:89:4b:d3:6c:a2:cf:fa:33:d7:9a:21:
                    f7:96:f6:95:88:bf:7a:13:d0:6d:43:98:cd:5f:6a:
                    5a:30:13:d3:db:f4:13:f8:11:ca:7e:08:87:d6:8f:
                    21:20:69:c3:a5:72:44:9c:96:86:7b:e7:78:18:db:
                    76:b0:6c:7d:36:68:5d:6d:50:dc:76:94:4c:7e:00:
                    00:a4:9d:5a:3e:66:80:c9:90:43:94:4b:c9:fc:8b:
                    8a:b8:a1:f1:55:7e:12:21:b4:2a:72:e2:1a:cf:6f:
                    c4:c6:97:5f:77:44:b6:62:43:9b:17:76:38:58:7b:
                    bf:b3
                Exponent: 65537 (0x10001)
        X509v3 extensions:
            X509v3 Basic Constraints: critical
                CA:FALSE
            X509v3 Subject Key Identifier: 
                86:06:F1:F6:E5:9D:AF:07:32:C9:01:C8:AC:B6:CF:FA:D2:9E:F8:2B
            X509v3 Authority Key Identifier: 
                keyid:FF:4E:6F:0A:E6:DA:91:BA:EB:D3:C2:EE:1C:09:DD:C0:D8:ED:50:78

            X509v3 Extended Key Usage: 
                TLS Web Server Authentication, TLS Web Client Authentication
            X509v3 Subject Alternative Name: 
                DNS:www.example.org, DNS:mail.example.org, DNS:mail.example.com, IP Address:127.0.0.1
    Signature Algorithm: sha256WithRSAEncryption
        94:8d:c1:6a:97:cf:9c:06:1e:ca:1f:bc:93:be:2b:30:f0:bf:
        23:e4:24:6f:27:17:9e:28:69:3c:e1:a9:2c:e4:83:1b:3c:a0:
        6a:cb:dc:e3:80:ef:7c:21:77:6e:60:6e:bd:38:a1:57:4e:4f:
        b3:f1:e0:0a:f8:07:f3:f5:04:b8:a1:5e:3f:e4:c9:a4:72:d4:
        86:b0:46:34:4f:a3:0f:a5:e7:42:d6:29:5c:d8:e3:0e:d8:a6:
        ed:27:40:91:4e:0c:72:21:b9:f8:7a:e6:ac:c8:af:9f:66:09:
        ca:f5:72:d8:ee:10:aa:11:7d:2a:f1:25:7e:f3:da:61:38:7d:
        84:53:de:7b:d7:9a:7c:21:0a:2f:3a:5d:96:56:bd:d4:11:b5:
        97:12:fa:87:61:64:ff:3c:c5:71:df:77:4e:4a:0c:0c:2e:b1:
        39:32:9c:ab:76:e0:41:20:03:23:1f:32:95:0f:64:37:ea:e6:
        b9:d5:5d:81:91:f2:a9:6a:2d:47:98:7f:6e:8c:27:67:b6:11:
        85:94:81:77:51:af:66:42:1f:55:4f:dc:0d:2a:0b:8b:f1:a8:
        f2:cd:a9:07:46:5c:1d:30:a5:e0:6d:c8:a8:40:15:91:77:24:
        c1:0b:de:a2:c6:39:c2:85:ef:75:84:8a:1c:76:f1:09:87:59:
        8b:52:72:da
-----BEGIN CERTIFICATE-----
MIIDtDCCApygAwIBAgIBATANBgkqhkiG9w0BAQsFADAeMRwwGgYDVQQDDBNRVUlD
IFNlcnZlciBSb290IENBMB4XDTE3MDIxNDA5NTAzMloXDTE3MDIxNzA5NTAzMlow
ZDELMAkGA1UEBhMCVVMxEzARBgNVBAgMCkNhbGlmb3JuaWExFjAUBgNVBAcMDU1v
dW50YWluIFZpZXcxFDASBgNVBAoMC1FVSUMgU2VydmVyMRIwEAYDVQQDDAkxMjcu
MC4wLjEwggEiMA0GCSqGSIb3DQEBAQUAA4IBDwAwggEKAoIBAQDMMDuvlj94yGHn
aNGhMfflXVB7C6CMFHNksPiixhX9Pcy4vTsgL83+2yL/92w10eG9hq/Qc5aCHoBa
YnxUbOEQbvpnO5mAdJXv8bWocZf1PEyVtqOQXCZCmRhxgVdchqxNlycXcLOuABBR
fYyVD7sXYOhZ8boo0U9Y/USmStNv87X0ffEUDtmTmUKJS9Nsos/6M9eaIfeW9pWI
v3oT0G1DmM1falowE9Pb9BP4Ecp+CIfWjyEgacOlckScloZ753gY23awbH02aF1t
UNx2lEx+AACknVo+ZoDJkEOUS8n8i4q4ofFVfhIhtCpy4hrPb8TGl193RLZiQ5sX
djhYe7+zAgMBAAGjgbYwgbMwDAYDVR0TAQH/BAIwADAdBgNVHQ4EFgQUhgbx9uWd
rwcyyQHIrLbP+tKe+CswHwYDVR0jBBgwFoAU/05vCubakbrr08LuHAndwNjtUHgw
HQYDVR0lBBYwFAYIKwYBBQUHAwEGCCsGAQUFBwMCMEQGA1UdEQQ9MDuCD3d3dy5l
eGFtcGxlLm9yZ4IQbWFpbC5leGFtcGxlLm9yZ4IQbWFpbC5leGFtcGxlLmNvbYcE
fwAAATANBgkqhkiG9w0BAQsFAAOCAQEAlI3BapfPnAYeyh+8k74rMPC/I+QkbycX
nihpPOGpLOSDGzygasvc44DvfCF3bmBuvTihV05Ps/HgCvgH8/UEuKFeP+TJpHLU
hrBGNE+jD6XnQtYpXNjjDtim7SdAkU4MciG5+HrmrMivn2YJyvVy2O4QqhF9KvEl
fvPaYTh9hFPee9eafCEKLzpdlla91BG1lxL6h2Fk/zzFcd93TkoMDC6xOTKcq3bg
QSADIx8ylQ9kN+rmudVdgZHyqWotR5h/bownZ7YRhZSBd1GvZkIfVU/cDSoLi/Go
8s2pB0ZcHTCl4G3IqEAVkXckwQveosY5woXvdYSKHHbxCYdZi1Jy2g==
-----END CERTIFICATE-----
