Certificate:
    Data:
        Version: 3 (0x2)
        Serial Number: 15079634799473835723 (0xd1459ff46d41becb)
    Signature Algorithm: sha256WithRSAEncryption
        Issuer: CN=QUIC Server Root CA
        Validity
            Not Before: Feb 25 13:28:27 2017 GMT
            Not After : Feb 28 13:28:27 2017 GMT
        Subject: CN=QUIC Server Root CA
        Subject Public Key Info:
            Public Key Algorithm: rsaEncryption
                Public-Key: (2048 bit)
                Modulus:
                    00:d1:bd:ce:b0:35:25:d9:df:40:f3:5c:2d:9f:17:
                    06:aa:68:17:74:f7:c3:e8:38:e6:9f:99:66:fe:0a:
                    4a:02:39:6e:ac:f3:15:d0:55:7b:5b:da:3b:5c:a4:
                    6f:03:e9:b7:95:78:17:da:35:6f:44:08:b8:20:1a:
                    d6:bb:fb:30:96:b5:86:ca:45:b0:f7:6c:c9:7f:f1:
                    ad:6a:c7:11:2b:93:8a:06:35:27:5b:e0:40:f2:4a:
                    5a:f7:da:5a:b6:11:c0:09:1c:a8:ba:d6:fa:ab:05:
                    8d:a5:e2:cc:31:c8:2b:31:d0:2d:ef:ba:2d:13:a8:
                    b4:ef:84:5e:1a:45:73:fa:0f:3f:ee:25:40:b4:53:
                    26:b3:66:91:96:e7:a3:99:96:60:0c:84:9f:f2:a5:
                    43:b9:ea:bb:4e:33:c0:11:1b:6a:30:a9:9c:57:c4:
                    c4:47:6c:1f:99:83:db:0f:35:b1:be:f3:76:e7:2f:
                    8e:c6:16:5f:85:6c:35:23:49:d8:f4:04:2c:76:ee:
                    9d:cf:58:0b:de:4f:f8:c4:9e:75:33:a8:62:18:bd:
                    0e:c9:01:13:4a:b5:9d:60:63:30:42:fa:5c:9e:0b:
                    22:3c:0d:2f:50:ca:2b:4e:e9:4c:c0:b4:06:2f:ba:
                    81:6a:be:f9:f5:b4:50:31:33:dd:af:3e:84:42:8d:
                    e8:15
                Exponent: 65537 (0x10001)
        X509v3 extensions:
            X509v3 Basic Constraints: critical
                CA:TRUE
            X509v3 Subject Key Identifier: 
                71:DB:88:0C:F0:4E:76:4B:9A:5E:33:E8:39:0F:52:81:19:82:13:70
            X509v3 Key Usage: critical
                Certificate Sign, CRL Sign
    Signature Algorithm: sha256WithRSAEncryption
         a5:05:94:98:f9:b3:23:f6:03:6e:f0:ad:68:43:03:4a:4d:71:
         dd:c6:02:7e:e9:bb:b7:95:73:7e:bf:13:89:65:63:9b:87:08:
         ed:c3:a1:8f:07:16:8f:d0:8d:bb:bb:a3:39:37:f7:a6:3a:5d:
         11:ad:4a:0c:ae:aa:8e:64:aa:a0:f0:29:45:28:b2:4e:29:bd:
         9c:3a:7d:42:42:a0:f9:38:78:58:0b:e5:c4:8b:c7:f7:00:73:
         ec:a4:22:33:ac:45:35:64:aa:d6:b4:60:4a:b0:3e:49:e8:95:
         f6:de:31:47:e6:a6:02:2d:f2:b2:e8:55:ce:5e:f8:cd:56:34:
         ae:86:49:96:84:47:97:00:d7:f4:ae:df:c3:2e:5e:0b:e1:12:
         20:8c:fb:c7:2a:48:05:e9:a1:d4:68:62:98:7d:00:d0:6e:73:
         a5:52:cd:9b:3f:a4:81:7c:77:ab:32:7c:1b:cf:6f:e5:5b:c3:
         a4:06:9c:e7:b7:03:2c:df:57:bf:9b:5e:8c:0c:6d:62:1b:9f:
         01:44:e7:43:7c:bc:a9:59:c8:8b:95:22:23:bd:40:1e:cb:2e:
         0f:e1:94:e2:c6:9d:38:d4:5c:36:9d:d7:1a:23:df:6a:5f:2f:
         70:79:3c:74:bb:34:d1:67:d2:cf:78:56:c9:19:f1:e4:5f:5d:
         7d:98:b0:13
-----BEGIN CERTIFICATE-----
MIIDATCCAemgAwIBAgIJANFFn/RtQb7LMA0GCSqGSIb3DQEBCwUAMB4xHDAaBgNV
BAMME1FVSUMgU2VydmVyIFJvb3QgQ0EwHhcNMTcwMjI1MTMyODI3WhcNMTcwMjI4
MTMyODI3WjAeMRwwGgYDVQQDDBNRVUlDIFNlcnZlciBSb290IENBMIIBIjANBgkq
hkiG9w0BAQEFAAOCAQ8AMIIBCgKCAQEA0b3OsDUl2d9A81wtnxcGqmgXdPfD6Djm
n5lm/gpKAjlurPMV0FV7W9o7XKRvA+m3lXgX2jVvRAi4IBrWu/swlrWGykWw92zJ
f/GtascRK5OKBjUnW+BA8kpa99pathHACRyoutb6qwWNpeLMMcgrMdAt77otE6i0
74ReGkVz+g8/7iVAtFMms2aRluejmZZgDISf8qVDueq7TjPAERtqMKmcV8TER2wf
mYPbDzWxvvN25y+OxhZfhWw1I0nY9AQsdu6dz1gL3k/4xJ51M6hiGL0OyQETSrWd
YGMwQvpcngsiPA0vUMorTulMwLQGL7qBar759bRQMTPdrz6EQo3oFQIDAQABo0Iw
QDAPBgNVHRMBAf8EBTADAQH/MB0GA1UdDgQWBBRx24gM8E52S5peM+g5D1KBGYIT
cDAOBgNVHQ8BAf8EBAMCAQYwDQYJKoZIhvcNAQELBQADggEBAKUFlJj5syP2A27w
rWhDA0pNcd3GAn7pu7eVc36/E4llY5uHCO3DoY8HFo/Qjbu7ozk396Y6XRGtSgyu
qo5kqqDwKUUosk4pvZw6fUJCoPk4eFgL5cSLx/cAc+ykIjOsRTVkqta0YEqwPkno
lfbeMUfmpgIt8rLoVc5e+M1WNK6GSZaER5cA1/Su38MuXgvhEiCM+8cqSAXpodRo
Yph9ANBuc6VSzZs/pIF8d6syfBvPb+Vbw6QGnOe3AyzfV7+bXowMbWIbnwFE50N8
vKlZyIuVIiO9QB7LLg/hlOLGnTjUXDad1xoj32pfL3B5PHS7NNFn0s94VskZ8eRf
XX2YsBM=
-----END CERTIFICATE-----
