Certificate:
    Data:
        Version: 3 (0x2)
        Serial Number: 1 (0x1)
    Signature Algorithm: sha256WithRSAEncryption
        Issuer: CN=QUIC Server Root CA
        Validity
            Not Before: Feb 25 13:28:27 2017 GMT
            Not After : Feb 28 13:28:27 2017 GMT
        Subject: C=US, ST=California, L=Mountain View, O=QUIC Server, CN=127.0.0.1
        Subject Public Key Info:
            Public Key Algorithm: rsaEncryption
                Public-Key: (2048 bit)
                Modulus:
                    00:de:b2:11:6e:bb:59:fa:c1:31:e0:59:28:4c:c3:
                    4e:b7:6e:b7:77:50:55:71:00:bd:12:89:4e:39:72:
                    f9:2d:98:6c:b7:ca:d7:6d:b1:99:97:06:07:3e:82:
                    e3:9b:0e:bd:31:68:32:ac:7a:76:e4:99:51:ca:f5:
                    86:b7:d0:46:e5:83:fd:d8:c4:76:f7:9b:bb:49:f5:
                    28:91:5e:58:d3:1f:02:84:13:ab:ea:32:72:9e:16:
                    64:1a:20:84:70:4b:ce:1f:2e:80:ff:78:ba:f5:3b:
                    75:f2:1e:83:ee:54:04:76:4c:cc:fa:23:44:8b:40:
                    3e:90:8a:e6:61:fa:29:73:4d:b6:2c:fb:6e:7b:c8:
                    48:7a:d7:c4:9f:ec:1f:63:c4:7c:63:ad:33:99:af:
                    00:07:32:d4:81:e0:d8:82:88:8a:cf:47:26:04:7b:
                    fa:9d:ef:82:ce:ff:ca:ed:78:e1:27:f0:8c:be:4d:
                    f9:6c:5f:86:39:bb:5a:2d:a7:7c:b6:10:4f:18:78:
                    7b:e9:b8:ed:c4:f7:28:f1:7f:6d:64:cf:d9:09:c8:
                    1a:3b:88:cd:8c:61:57:a9:d7:7f:a4:97:d2:2f:2c:
                    bb:a8:84:43:d1:65:ad:42:67:16:17:1d:43:7d:6e:
                    45:c8:a3:de:91:16:ba:bb:43:65:0a:c0:b1:69:e3:
                    af:fb
                Exponent: 65537 (0x10001)
        X509v3 extensions:
            X509v3 Basic Constraints: critical
                CA:FALSE
            X509v3 Subject Key Identifier: 
                E5:E7:AC:00:F1:37:09:AC:03:1E:DF:3D:BF:0A:1C:A5:1F:C6:FC:AA
            X509v3 Authority Key Identifier: 
                keyid:71:DB:88:0C:F0:4E:76:4B:9A:5E:33:E8:39:0F:52:81:19:82:13:70

            X509v3 Extended Key Usage: 
                TLS Web Server Authentication, TLS Web Client Authentication
            X509v3 Subject Alternative Name: 
                DNS:www.example.org, DNS:mail.example.org, DNS:mail.example.com, IP Address:127.0.0.1
    Signature Algorithm: sha256WithRSAEncryption
         17:5a:ad:19:68:eb:10:e1:ce:5a:cf:26:0a:4a:ab:ea:b3:74:
         d2:a7:79:d7:ab:e3:44:ef:c3:70:eb:1c:de:3d:bc:c6:63:6a:
         fa:e5:d6:39:e9:a0:fd:61:1f:74:e5:aa:ec:d4:37:f3:4b:eb:
         68:8f:4e:df:21:03:6d:10:6b:f3:b8:b4:a7:59:b3:39:6e:71:
         e5:61:f1:a4:f3:72:58:84:6d:8a:5a:a0:3f:f5:70:a1:b9:04:
         7e:4a:df:b8:c9:1b:69:ff:14:cc:0b:b0:8b:35:47:77:8a:5d:
         04:04:06:dc:1b:9c:de:61:59:33:f7:b4:67:19:29:68:02:ef:
         90:b4:75:b8:a1:3c:13:dd:69:4b:65:cf:33:71:50:8b:fc:af:
         ee:5c:21:2f:f5:ce:57:bb:c0:c5:cc:95:28:87:3a:2b:ef:a1:
         d2:d6:bd:77:a3:ab:bf:f2:a1:b2:cf:43:40:0c:db:98:62:53:
         ee:5c:85:7c:45:0a:c4:f2:eb:13:0e:bb:a6:f8:0d:5d:34:cf:
         9f:ed:b4:79:0d:06:e0:0c:ac:f8:41:05:f3:03:d5:75:18:18:
         ba:80:77:ce:52:5b:42:d3:6e:f2:7b:96:49:dc:6a:47:a4:06:
         4d:c4:71:c8:d8:81:3a:27:c2:1c:b9:42:0f:2e:44:4b:0c:fc:
         62:33:8a:2c
-----BEGIN CERTIFICATE-----
MIIDtDCCApygAwIBAgIBATANBgkqhkiG9w0BAQsFADAeMRwwGgYDVQQDDBNRVUlD
IFNlcnZlciBSb290IENBMB4XDTE3MDIyNTEzMjgyN1oXDTE3MDIyODEzMjgyN1ow
ZDELMAkGA1UEBhMCVVMxEzARBgNVBAgMCkNhbGlmb3JuaWExFjAUBgNVBAcMDU1v
dW50YWluIFZpZXcxFDASBgNVBAoMC1FVSUMgU2VydmVyMRIwEAYDVQQDDAkxMjcu
MC4wLjEwggEiMA0GCSqGSIb3DQEBAQUAA4IBDwAwggEKAoIBAQDeshFuu1n6wTHg
WShMw063brd3UFVxAL0SiU45cvktmGy3ytdtsZmXBgc+guObDr0xaDKsenbkmVHK
9Ya30Eblg/3YxHb3m7tJ9SiRXljTHwKEE6vqMnKeFmQaIIRwS84fLoD/eLr1O3Xy
HoPuVAR2TMz6I0SLQD6QiuZh+ilzTbYs+257yEh618Sf7B9jxHxjrTOZrwAHMtSB
4NiCiIrPRyYEe/qd74LO/8rteOEn8Iy+TflsX4Y5u1otp3y2EE8YeHvpuO3E9yjx
f21kz9kJyBo7iM2MYVep13+kl9IvLLuohEPRZa1CZxYXHUN9bkXIo96RFrq7Q2UK
wLFp46/7AgMBAAGjgbYwgbMwDAYDVR0TAQH/BAIwADAdBgNVHQ4EFgQU5eesAPE3
CawDHt89vwocpR/G/KowHwYDVR0jBBgwFoAUcduIDPBOdkuaXjPoOQ9SgRmCE3Aw
HQYDVR0lBBYwFAYIKwYBBQUHAwEGCCsGAQUFBwMCMEQGA1UdEQQ9MDuCD3d3dy5l
eGFtcGxlLm9yZ4IQbWFpbC5leGFtcGxlLm9yZ4IQbWFpbC5leGFtcGxlLmNvbYcE
fwAAATANBgkqhkiG9w0BAQsFAAOCAQEAF1qtGWjrEOHOWs8mCkqr6rN00qd516vj
RO/DcOsc3j28xmNq+uXWOemg/WEfdOWq7NQ380vraI9O3yEDbRBr87i0p1mzOW5x
5WHxpPNyWIRtilqgP/VwobkEfkrfuMkbaf8UzAuwizVHd4pdBAQG3Buc3mFZM/e0
ZxkpaALvkLR1uKE8E91pS2XPM3FQi/yv7lwhL/XOV7vAxcyVKIc6K++h0ta9d6Or
v/Khss9DQAzbmGJT7lyFfEUKxPLrEw67pvgNXTTPn+20eQ0G4Ays+EEF8wPVdRgY
uoB3zlJbQtNu8nuWSdxqR6QGTcRxyNiBOifCHLlCDy5ESwz8YjOKLA==
-----END CERTIFICATE-----
